; Function Attrs: mustprogress nounwind uwtable
define dso_local noundef ptr @_ZNK4llvm10DataLayout23getSmallestLegalIntTypeERNS_11LLVMContextEj(ptr noundef nonnull align 8 dereferenceable(512) %0, ptr noundef nonnull align 8 dereferenceable(8) %1, i32 noundef %2) local_unnamed_addr #0 align 2 {
  %4 = getelementptr inbounds nuw i8, ptr %0, i64 32
  %5 = load ptr, ptr %4, align 8
  %6 = tail call noundef i64 @_ZNK4llvm15SmallVectorBaseImE4sizeEv(ptr noundef nonnull align 8 dereferenceable(24) %4) #19
  %7 = getelementptr inbounds i8, ptr %5, i64 %6
  %.not14 = icmp eq i64 %6, 0
  br i1 %.not14, label %.loopexit, label %.lr.ph

8:                                                ; preds = %.lr.ph
  %9 = getelementptr inbounds nuw i8, ptr %.01115, i64 1
  %.not = icmp eq ptr %9, %7
  br i1 %.not, label %.loopexit, label %.lr.ph

.lr.ph:                                           ; preds = %3, %8
  %.01115 = phi ptr [ %9, %8 ], [ %5, %3 ]
  %10 = load i8, ptr %.01115, align 1
  %11 = zext i8 %10 to i32
  %.not13 = icmp ugt i32 %2, %11
  br i1 %.not13, label %8, label %12

12:                                               ; preds = %.lr.ph
  %13 = tail call noundef ptr @_ZN4llvm4Type9getIntNTyERNS_11LLVMContextEj(ptr noundef nonnull align 8 dereferenceable(8) %1, i32 noundef %11) #19
  br label %.loopexit

.loopexit:                                        ; preds = %8, %3, %12
  %.0 = phi ptr [ %13, %12 ], [ null, %3 ], [ null, %8 ]
  ret ptr %.0
}